target datalayout = "e-m:e-p270:32:32-p271:32:32-p272:64:64-i64:64-i128:128-f80:128-n8:16:32:64-S128"
target triple = "x86_64-pc-linux-gnu"

%struct.SDL_Haptic = type { i32, ptr, ptr, i32, i32, i32, i32, ptr, i32, i32, %union.SDL_HapticEffect, ptr }
%union.SDL_HapticEffect = type { %struct.SDL_HapticCustom, [16 x i8] }
%struct.SDL_HapticCustom = type { i16, %struct.SDL_HapticDirection, i32, i16, i16, i16, i8, i16, i16, ptr, i16, i16, i16, i16 }
%struct.SDL_HapticDirection = type { i8, [3 x i32] }
%struct.haptic_effect = type { %union.SDL_HapticEffect, ptr }

@SDL_haptics = internal global ptr null, align 8
@.str = private unnamed_addr constant [26 x i8] c"Parameter '%s' is invalid\00", align 1
@.str.1 = private unnamed_addr constant [7 x i8] c"haptic\00", align 1

; Function Attrs: nounwind uwtable
define hidden void @SDL_CloseHaptic_REAL(ptr noundef %0) #0 {
  %2 = alloca ptr, align 8
  %3 = alloca i32, align 4
  %4 = alloca ptr, align 8
  %5 = alloca ptr, align 8
  %6 = alloca i32, align 4
  store ptr %0, ptr %2, align 8
  call void @llvm.lifetime.start.p0(i64 4, ptr %3) #7
  call void @llvm.lifetime.start.p0(i64 8, ptr %4) #7
  call void @llvm.lifetime.start.p0(i64 8, ptr %5) #7
  %7 = load ptr, ptr %2, align 8
  %8 = call zeroext i1 @SDL_ObjectValid(ptr noundef %7, i32 noundef 6)
  br i1 %8, label %11, label %9

9:                                                ; preds = %1
  %10 = call zeroext i1 (ptr, ...) @SDL_SetError_REAL(ptr noundef @.str, ptr noundef @.str.1)
  store i32 1, ptr %6, align 4
  br label %83

11:                                               ; preds = %1
  %12 = load ptr, ptr %2, align 8
  %13 = getelementptr inbounds nuw %struct.SDL_Haptic, ptr %12, i32 0, i32 8
  %14 = load i32, ptr %13, align 8
  %15 = add nsw i32 %14, -1
  store i32 %15, ptr %13, align 8
  %16 = icmp sgt i32 %15, 0
  br i1 %16, label %17, label %18

17:                                               ; preds = %11
  store i32 1, ptr %6, align 4
  br label %83

18:                                               ; preds = %11
  %19 = load ptr, ptr %2, align 8
  %20 = call zeroext i1 @SDL_HIDAPI_HapticIsHidapi(ptr noundef %19)
  br i1 %20, label %21, label %23

21:                                               ; preds = %18
  %22 = load ptr, ptr %2, align 8
  call void @SDL_HIDAPI_HapticClose(ptr noundef %22)
  br label %49

23:                                               ; preds = %18
  store i32 0, ptr %3, align 4
  br label %24

24:                                               ; preds = %44, %23
  %25 = load i32, ptr %3, align 4
  %26 = load ptr, ptr %2, align 8
  %27 = getelementptr inbounds nuw %struct.SDL_Haptic, ptr %26, i32 0, i32 3
  %28 = load i32, ptr %27, align 8
  %29 = icmp slt i32 %25, %28
  br i1 %29, label %30, label %47

30:                                               ; preds = %24
  %31 = load ptr, ptr %2, align 8
  %32 = getelementptr inbounds nuw %struct.SDL_Haptic, ptr %31, i32 0, i32 2
  %33 = load ptr, ptr %32, align 8
  %34 = load i32, ptr %3, align 4
  %35 = sext i32 %34 to i64
  %36 = getelementptr inbounds %struct.haptic_effect, ptr %33, i64 %35
  %37 = getelementptr inbounds nuw %struct.haptic_effect, ptr %36, i32 0, i32 1
  %38 = load ptr, ptr %37, align 8
  %39 = icmp ne ptr %38, null
  br i1 %39, label %40, label %43

40:                                               ; preds = %30
  %41 = load ptr, ptr %2, align 8
  %42 = load i32, ptr %3, align 4
  call void @SDL_DestroyHapticEffect_REAL(ptr noundef %41, i32 noundef %42)
  br label %43

43:                                               ; preds = %40, %30
  br label %44

44:                                               ; preds = %43
  %45 = load i32, ptr %3, align 4
  %46 = add nsw i32 %45, 1
  store i32 %46, ptr %3, align 4
  br label %24, !llvm.loop !11

47:                                               ; preds = %24
  %48 = load ptr, ptr %2, align 8
  call void @SDL_SYS_HapticClose(ptr noundef %48)
  br label %49

49:                                               ; preds = %47, %21
  %50 = load ptr, ptr %2, align 8
  call void @SDL_SetObjectValid(ptr noundef %50, i32 noundef 6, i1 noundef zeroext false)
  %51 = load ptr, ptr @SDL_haptics, align 8
  store ptr %51, ptr %4, align 8
  store ptr null, ptr %5, align 8
  br label %52

52:                                               ; preds = %73, %49
  %53 = load ptr, ptr %4, align 8
  %54 = icmp ne ptr %53, null
  br i1 %54, label %55, label %78

55:                                               ; preds = %52
  %56 = load ptr, ptr %2, align 8
  %57 = load ptr, ptr %4, align 8
  %58 = icmp eq ptr %56, %57
  br i1 %58, label %59, label %73

59:                                               ; preds = %55
  %60 = load ptr, ptr %5, align 8
  %61 = icmp ne ptr %60, null
  br i1 %61, label %62, label %68

62:                                               ; preds = %59
  %63 = load ptr, ptr %4, align 8
  %64 = getelementptr inbounds nuw %struct.SDL_Haptic, ptr %63, i32 0, i32 11
  %65 = load ptr, ptr %64, align 8
  %66 = load ptr, ptr %5, align 8
  %67 = getelementptr inbounds nuw %struct.SDL_Haptic, ptr %66, i32 0, i32 11
  store ptr %65, ptr %67, align 8
  br label %72

68:                                               ; preds = %59
  %69 = load ptr, ptr %2, align 8
  %70 = getelementptr inbounds nuw %struct.SDL_Haptic, ptr %69, i32 0, i32 11
  %71 = load ptr, ptr %70, align 8
  store ptr %71, ptr @SDL_haptics, align 8
  br label %72

72:                                               ; preds = %68, %62
  br label %78

73:                                               ; preds = %55
  %74 = load ptr, ptr %4, align 8
  store ptr %74, ptr %5, align 8
  %75 = load ptr, ptr %4, align 8
  %76 = getelementptr inbounds nuw %struct.SDL_Haptic, ptr %75, i32 0, i32 11
  %77 = load ptr, ptr %76, align 8
  store ptr %77, ptr %4, align 8
  br label %52, !llvm.loop !12

78:                                               ; preds = %72, %52
  %79 = load ptr, ptr %2, align 8
  %80 = getelementptr inbounds nuw %struct.SDL_Haptic, ptr %79, i32 0, i32 1
  %81 = load ptr, ptr %80, align 8
  call void @SDL_free_REAL(ptr noundef %81)
  %82 = load ptr, ptr %2, align 8
  call void @SDL_free_REAL(ptr noundef %82)
  store i32 0, ptr %6, align 4
  br label %83

83:                                               ; preds = %78, %17, %9
  call void @llvm.lifetime.end.p0(i64 8, ptr %5) #7
  call void @llvm.lifetime.end.p0(i64 8, ptr %4) #7
  call void @llvm.lifetime.end.p0(i64 4, ptr %3) #7
  %84 = load i32, ptr %6, align 4
  switch i32 %84, label %86 [
    i32 0, label %85
    i32 1, label %85
  ]

85:                                               ; preds = %83, %83
  ret void

86:                                               ; preds = %83
  unreachable
}