; Function Attrs: nounwind uwtable
define hidden void @SDL_CloseHaptic_REAL(ptr noundef %0) local_unnamed_addr #0 {
  %2 = tail call zeroext i1 @SDL_ObjectValid(ptr noundef %0, i32 noundef 6) #9
  br i1 %2, label %5, label %3

3:                                                ; preds = %1
  %4 = tail call zeroext i1 (ptr, ...) @SDL_SetError_REAL(ptr noundef nonnull @.str, ptr noundef nonnull @.str.1) #9
  br label %41

5:                                                ; preds = %1
  %6 = getelementptr inbounds nuw i8, ptr %0, i64 48
  %7 = load i32, ptr %6, align 8
  %8 = add nsw i32 %7, -1
  store i32 %8, ptr %6, align 8
  %9 = icmp sgt i32 %7, 1
  br i1 %9, label %41, label %10

10:                                               ; preds = %5
  %11 = tail call zeroext i1 @SDL_HIDAPI_HapticIsHidapi(ptr noundef nonnull %0) #9
  br i1 %11, label %16, label %.preheader

.preheader:                                       ; preds = %10
  %12 = getelementptr inbounds nuw i8, ptr %0, i64 24
  %13 = load i32, ptr %12, align 8
  %14 = icmp sgt i32 %13, 0
  br i1 %14, label %.lr.ph, label %._crit_edge

.lr.ph:                                           ; preds = %.preheader
  %15 = getelementptr inbounds nuw i8, ptr %0, i64 16
  br label %17

16:                                               ; preds = %10
  tail call void @SDL_HIDAPI_HapticClose(ptr noundef nonnull %0) #9
  br label %28

17:                                               ; preds = %.lr.ph, %24
  %18 = phi i32 [ %13, %.lr.ph ], [ %25, %24 ]
  %indvars.iv = phi i64 [ 0, %.lr.ph ], [ %indvars.iv.next, %24 ]
  %19 = load ptr, ptr %15, align 8
  %20 = getelementptr inbounds nuw %struct.haptic_effect, ptr %19, i64 %indvars.iv, i32 1
  %21 = load ptr, ptr %20, align 8
  %.not = icmp eq ptr %21, null
  br i1 %.not, label %24, label %22

22:                                               ; preds = %17
  %23 = trunc nuw nsw i64 %indvars.iv to i32
  tail call void @SDL_DestroyHapticEffect_REAL(ptr noundef nonnull %0, i32 noundef %23)
  %.pre = load i32, ptr %12, align 8
  br label %24

24:                                               ; preds = %17, %22
  %25 = phi i32 [ %18, %17 ], [ %.pre, %22 ]
  %indvars.iv.next = add nuw nsw i64 %indvars.iv, 1
  %26 = sext i32 %25 to i64
  %27 = icmp slt i64 %indvars.iv.next, %26
  br i1 %27, label %17, label %._crit_edge, !llvm.loop !11

._crit_edge:                                      ; preds = %24, %.preheader
  tail call void @SDL_SYS_HapticClose(ptr noundef nonnull %0) #9
  br label %28

28:                                               ; preds = %._crit_edge, %16
  tail call void @SDL_SetObjectValid(ptr noundef nonnull %0, i32 noundef 6, i1 noundef zeroext false) #9
  %.02331 = load ptr, ptr @SDL_haptics, align 8
  %.not2632 = icmp eq ptr %.02331, null
  br i1 %.not2632, label %.loopexit, label %.lr.ph36.preheader

.lr.ph36.preheader:                               ; preds = %28
  %29 = icmp eq ptr %0, %.02331
  br i1 %29, label %.lr.ph36._crit_edge, label %.lr.ph45

.lr.ph36:                                         ; preds = %.lr.ph45
  %30 = icmp eq ptr %0, %.023
  br i1 %30, label %.lr.ph36._crit_edge, label %.lr.ph45, !llvm.loop !12

.lr.ph36._crit_edge:                              ; preds = %.lr.ph36, %.lr.ph36.preheader
  %.02334.lcssa = phi ptr [ %.02331, %.lr.ph36.preheader ], [ %.023, %.lr.ph36 ]
  %.033.lcssa = phi ptr [ null, %.lr.ph36.preheader ], [ %.0233444, %.lr.ph36 ]
  %.not27 = icmp eq ptr %.033.lcssa, null
  br i1 %.not27, label %35, label %31

31:                                               ; preds = %.lr.ph36._crit_edge
  %32 = getelementptr inbounds nuw i8, ptr %.02334.lcssa, i64 128
  %33 = load ptr, ptr %32, align 8
  %34 = getelementptr inbounds nuw i8, ptr %.033.lcssa, i64 128
  store ptr %33, ptr %34, align 8
  br label %.loopexit

35:                                               ; preds = %.lr.ph36._crit_edge
  %36 = getelementptr inbounds nuw i8, ptr %0, i64 128
  %37 = load ptr, ptr %36, align 8
  store ptr %37, ptr @SDL_haptics, align 8
  br label %.loopexit

.lr.ph45:                                         ; preds = %.lr.ph36.preheader, %.lr.ph36
  %.0233444 = phi ptr [ %.023, %.lr.ph36 ], [ %.02331, %.lr.ph36.preheader ]
  %38 = getelementptr inbounds nuw i8, ptr %.0233444, i64 128
  %.023 = load ptr, ptr %38, align 8
  %.not26 = icmp eq ptr %.023, null
  br i1 %.not26, label %.loopexit, label %.lr.ph36, !llvm.loop !12

.loopexit:                                        ; preds = %.lr.ph45, %28, %31, %35
  %39 = getelementptr inbounds nuw i8, ptr %0, i64 8
  %40 = load ptr, ptr %39, align 8
  tail call void @SDL_free_REAL(ptr noundef %40) #9
  tail call void @SDL_free_REAL(ptr noundef nonnull %0) #9
  br label %41

41:                                               ; preds = %5, %.loopexit, %3
  ret void
}